target datalayout = "e-m:e-p270:32:32-p271:32:32-p272:64:64-i64:64-i128:128-f80:128-n8:16:32:64-S128"
target triple = "x86_64-pc-linux-gnu"

%"struct.absl::cord_internal::CordRep" = type { i64, %"class.absl::cord_internal::RefcountAndFlags", i8, [3 x i8] }
%"class.absl::cord_internal::RefcountAndFlags" = type { %"struct.std::atomic" }
%"struct.std::atomic" = type { %"struct.std::__atomic_base" }
%"struct.std::__atomic_base" = type { i32 }
%"struct.absl::cord_internal::CordRepSubstring" = type { %"struct.absl::cord_internal::CordRep", i64, ptr }
%"union.absl::functional_internal::VoidPtr" = type { ptr }
%class.anon.5 = type { ptr }

; Function Attrs: mustprogress nounwind uwtable
define linkonce_odr dso_local void @_ZNSt13__atomic_baseIiEC2Ei(ptr noundef nonnull align 4 dereferenceable(4) %0, i32 noundef %1) unnamed_addr #6 comdat align 2 {
  %3 = alloca ptr, align 8
  %4 = alloca i32, align 4
  store ptr %0, ptr %3, align 8, !tbaa !151
  store i32 %1, ptr %4, align 4, !tbaa !11
  %5 = load ptr, ptr %3, align 8
  %6 = getelementptr inbounds nuw %"struct.std::__atomic_base", ptr %5, i32 0, i32 0
  %7 = load i32, ptr %4, align 4, !tbaa !11
  store i32 %7, ptr %6, align 4, !tbaa !153
  ret void
}

; Function Attrs: mustprogress nounwind uwtable
define linkonce_odr dso_local void @_ZNSt6atomicIiEC2Ei(ptr noundef nonnull align 4 dereferenceable(4) %0, i32 noundef %1) unnamed_addr #6 comdat align 2 {
  %3 = alloca ptr, align 8
  %4 = alloca i32, align 4
  store ptr %0, ptr %3, align 8, !tbaa !149
  store i32 %1, ptr %4, align 4, !tbaa !11
  %5 = load ptr, ptr %3, align 8
  %6 = load i32, ptr %4, align 4, !tbaa !11
  call void @_ZNSt13__atomic_baseIiEC2Ei(ptr noundef nonnull align 4 dereferenceable(4) %5, i32 noundef %6) #3
  ret void
}

; Function Attrs: mustprogress nounwind uwtable
define linkonce_odr dso_local void @_ZN4absl13cord_internal16RefcountAndFlagsC2Ev(ptr noundef nonnull align 4 dereferenceable(4) %0) unnamed_addr #6 comdat align 2 {
  %2 = alloca ptr, align 8
  store ptr %0, ptr %2, align 8, !tbaa !86
  %3 = load ptr, ptr %2, align 8
  %4 = getelementptr inbounds nuw %"class.absl::cord_internal::RefcountAndFlags", ptr %3, i32 0, i32 0
  call void @_ZNSt6atomicIiEC2Ei(ptr noundef nonnull align 4 dereferenceable(4) %4, i32 noundef 2) #3
  ret void
}

; Function Attrs: alwaysinline mustprogress nounwind uwtable
define linkonce_odr dso_local noundef i32 @_ZNSt13__atomic_baseIiE9fetch_addEiSt12memory_order(ptr noundef nonnull align 4 dereferenceable(4) %0, i32 noundef %1, i32 noundef %2) #14 comdat align 2 {
  %4 = alloca ptr, align 8
  %5 = alloca i32, align 4
  %6 = alloca i32, align 4
  %7 = alloca i32, align 4
  %8 = alloca i32, align 4
  store ptr %0, ptr %4, align 8, !tbaa !151
  store i32 %1, ptr %5, align 4, !tbaa !11
  store i32 %2, ptr %6, align 4, !tbaa !67
  %9 = load ptr, ptr %4, align 8
  %10 = getelementptr inbounds nuw %"struct.std::__atomic_base", ptr %9, i32 0, i32 0
  %11 = load i32, ptr %6, align 4, !tbaa !67
  %12 = load i32, ptr %5, align 4, !tbaa !11
  store i32 %12, ptr %7, align 4, !tbaa !11
  switch i32 %11, label %13 [
    i32 1, label %16
    i32 2, label %16
    i32 3, label %19
    i32 4, label %22
    i32 5, label %25
  ]

13:                                               ; preds = %3
  %14 = load i32, ptr %7, align 4
  %15 = atomicrmw add ptr %10, i32 %14 monotonic, align 4
  store i32 %15, ptr %8, align 4
  br label %28

16:                                               ; preds = %3, %3
  %17 = load i32, ptr %7, align 4
  %18 = atomicrmw add ptr %10, i32 %17 acquire, align 4
  store i32 %18, ptr %8, align 4
  br label %28

19:                                               ; preds = %3
  %20 = load i32, ptr %7, align 4
  %21 = atomicrmw add ptr %10, i32 %20 release, align 4
  store i32 %21, ptr %8, align 4
  br label %28

22:                                               ; preds = %3
  %23 = load i32, ptr %7, align 4
  %24 = atomicrmw add ptr %10, i32 %23 acq_rel, align 4
  store i32 %24, ptr %8, align 4
  br label %28

25:                                               ; preds = %3
  %26 = load i32, ptr %7, align 4
  %27 = atomicrmw add ptr %10, i32 %26 seq_cst, align 4
  store i32 %27, ptr %8, align 4
  br label %28

28:                                               ; preds = %25, %22, %19, %16, %13
  %29 = load i32, ptr %8, align 4, !tbaa !11
  ret i32 %29
}

; Function Attrs: mustprogress uwtable
define linkonce_odr dso_local void @_ZN4absl13cord_internal7CordRepC2Ev(ptr noundef nonnull align 8 dereferenceable(16) %0) unnamed_addr #4 comdat align 2 {
  %2 = alloca ptr, align 8
  store ptr %0, ptr %2, align 8, !tbaa !9
  %3 = load ptr, ptr %2, align 8
  %4 = getelementptr inbounds nuw %"struct.absl::cord_internal::CordRep", ptr %3, i32 0, i32 1
  call void @_ZN4absl13cord_internal16RefcountAndFlagsC2Ev(ptr noundef nonnull align 4 dereferenceable(4) %4)
  ret void
}

; Function Attrs: inlinehint mustprogress nounwind uwtable
define linkonce_odr dso_local void @_ZN4absl13cord_internal16RefcountAndFlags9IncrementEv(ptr noundef nonnull align 4 dereferenceable(4) %0) #8 comdat align 2 {
  %2 = alloca ptr, align 8
  store ptr %0, ptr %2, align 8, !tbaa !86
  %3 = load ptr, ptr %2, align 8
  %4 = getelementptr inbounds nuw %"class.absl::cord_internal::RefcountAndFlags", ptr %3, i32 0, i32 0
  %5 = call noundef i32 @_ZNSt13__atomic_baseIiE9fetch_addEiSt12memory_order(ptr noundef nonnull align 4 dereferenceable(4) %4, i32 noundef 2, i32 noundef 0) #3
  ret void
}

; Function Attrs: alwaysinline mustprogress nounwind uwtable
define linkonce_odr dso_local noundef i32 @_ZNSt13__atomic_baseIiE9fetch_subEiSt12memory_order(ptr noundef nonnull align 4 dereferenceable(4) %0, i32 noundef %1, i32 noundef %2) #14 comdat align 2 {
  %4 = alloca ptr, align 8
  %5 = alloca i32, align 4
  %6 = alloca i32, align 4
  %7 = alloca i32, align 4
  %8 = alloca i32, align 4
  store ptr %0, ptr %4, align 8, !tbaa !151
  store i32 %1, ptr %5, align 4, !tbaa !11
  store i32 %2, ptr %6, align 4, !tbaa !67
  %9 = load ptr, ptr %4, align 8
  %10 = getelementptr inbounds nuw %"struct.std::__atomic_base", ptr %9, i32 0, i32 0
  %11 = load i32, ptr %6, align 4, !tbaa !67
  %12 = load i32, ptr %5, align 4, !tbaa !11
  store i32 %12, ptr %7, align 4, !tbaa !11
  switch i32 %11, label %13 [
    i32 1, label %16
    i32 2, label %16
    i32 3, label %19
    i32 4, label %22
    i32 5, label %25
  ]

13:                                               ; preds = %3
  %14 = load i32, ptr %7, align 4
  %15 = atomicrmw sub ptr %10, i32 %14 monotonic, align 4
  store i32 %15, ptr %8, align 4
  br label %28

16:                                               ; preds = %3, %3
  %17 = load i32, ptr %7, align 4
  %18 = atomicrmw sub ptr %10, i32 %17 acquire, align 4
  store i32 %18, ptr %8, align 4
  br label %28

19:                                               ; preds = %3
  %20 = load i32, ptr %7, align 4
  %21 = atomicrmw sub ptr %10, i32 %20 release, align 4
  store i32 %21, ptr %8, align 4
  br label %28

22:                                               ; preds = %3
  %23 = load i32, ptr %7, align 4
  %24 = atomicrmw sub ptr %10, i32 %23 acq_rel, align 4
  store i32 %24, ptr %8, align 4
  br label %28

25:                                               ; preds = %3
  %26 = load i32, ptr %7, align 4
  %27 = atomicrmw sub ptr %10, i32 %26 seq_cst, align 4
  store i32 %27, ptr %8, align 4
  br label %28

28:                                               ; preds = %25, %22, %19, %16, %13
  %29 = load i32, ptr %8, align 4, !tbaa !11
  ret i32 %29
}

; Function Attrs: inlinehint mustprogress uwtable
define linkonce_odr dso_local void @_ZN4absl13cord_internal16CordRepSubstringC2Ev(ptr noundef nonnull align 8 dereferenceable(32) %0) unnamed_addr #7 comdat align 2 {
  %2 = alloca ptr, align 8
  store ptr %0, ptr %2, align 8, !tbaa !80
  %3 = load ptr, ptr %2, align 8
  call void @_ZN4absl13cord_internal7CordRepC2Ev(ptr noundef nonnull align 8 dereferenceable(16) %3)
  ret void
}

; Function Attrs: inlinehint mustprogress uwtable
define linkonce_odr dso_local noundef ptr @_ZN4absl13cord_internal7CordRep3RefEPS1_(ptr noundef %0) #7 comdat align 2 {
  %2 = alloca ptr, align 8
  store ptr %0, ptr %2, align 8, !tbaa !9
  %3 = load ptr, ptr %2, align 8, !tbaa !9
  %4 = icmp ne ptr %3, null
  call void @llvm.assume(i1 %4)
  %5 = load ptr, ptr %2, align 8, !tbaa !9
  %6 = getelementptr inbounds nuw %"struct.absl::cord_internal::CordRep", ptr %5, i32 0, i32 1
  call void @_ZN4absl13cord_internal16RefcountAndFlags9IncrementEv(ptr noundef nonnull align 4 dereferenceable(4) %6)
  %7 = load ptr, ptr %2, align 8, !tbaa !9
  ret ptr %7
}

; Function Attrs: inlinehint mustprogress nounwind uwtable
define linkonce_odr dso_local noundef ptr @_ZN4absl13cord_internal7CordRep9substringEv(ptr noundef nonnull align 8 dereferenceable(16) %0) #8 comdat align 2 {
  %2 = alloca ptr, align 8
  store ptr %0, ptr %2, align 8, !tbaa !9
  %3 = load ptr, ptr %2, align 8
  ret ptr %3
}

; Function Attrs: inlinehint mustprogress nounwind uwtable
define linkonce_odr dso_local noundef zeroext i1 @_ZN4absl13cord_internal16RefcountAndFlags27DecrementExpectHighRefcountEv(ptr noundef nonnull align 4 dereferenceable(4) %0) #8 comdat align 2 {
  %2 = alloca ptr, align 8
  %3 = alloca i32, align 4
  store ptr %0, ptr %2, align 8, !tbaa !86
  %4 = load ptr, ptr %2, align 8
  call void @llvm.lifetime.start.p0(i64 4, ptr %3) #3
  %5 = getelementptr inbounds nuw %"class.absl::cord_internal::RefcountAndFlags", ptr %4, i32 0, i32 0
  %6 = call noundef i32 @_ZNSt13__atomic_baseIiE9fetch_subEiSt12memory_order(ptr noundef nonnull align 4 dereferenceable(4) %5, i32 noundef 2, i32 noundef 4) #3
  store i32 %6, ptr %3, align 4, !tbaa !11
  %7 = load i32, ptr %3, align 4, !tbaa !11
  %8 = icmp ne i32 %7, 2
  call void @llvm.lifetime.end.p0(i64 4, ptr %3) #3
  ret i1 %8
}

; Function Attrs: mustprogress uwtable
define internal noundef ptr @_ZN4absl13cord_internal12_GLOBAL__N_115CreateSubstringEPNS0_7CordRepEmm(ptr noundef %0, i64 noundef %1, i64 noundef %2) #4 personality ptr @__gxx_personality_v0 {
  %4 = alloca ptr, align 8
  %5 = alloca i64, align 8
  %6 = alloca i64, align 8
  %7 = alloca ptr, align 8
  %8 = alloca ptr, align 8
  %9 = alloca ptr, align 8
  %10 = alloca i32, align 4
  store ptr %0, ptr %4, align 8, !tbaa !9
  store i64 %1, ptr %5, align 8, !tbaa !19
  store i64 %2, ptr %6, align 8, !tbaa !19
  %11 = load ptr, ptr %4, align 8, !tbaa !9
  %12 = getelementptr inbounds nuw %"struct.absl::cord_internal::CordRep", ptr %11, i32 0, i32 2
  %13 = load i8, ptr %12, align 4, !tbaa !79
  %14 = zext i8 %13 to i32
  %15 = icmp eq i32 %14, 1
  br i1 %15, label %16, label %29

16:                                               ; preds = %3
  call void @llvm.lifetime.start.p0(i64 8, ptr %7) #3
  %17 = load ptr, ptr %4, align 8, !tbaa !9
  %18 = call noundef ptr @_ZN4absl13cord_internal7CordRep9substringEv(ptr noundef nonnull align 8 dereferenceable(16) %17)
  store ptr %18, ptr %7, align 8, !tbaa !80
  %19 = load ptr, ptr %7, align 8, !tbaa !80
  %20 = getelementptr inbounds nuw %"struct.absl::cord_internal::CordRepSubstring", ptr %19, i32 0, i32 1
  %21 = load i64, ptr %20, align 8, !tbaa !82
  %22 = load i64, ptr %5, align 8, !tbaa !19
  %23 = add i64 %22, %21
  store i64 %23, ptr %5, align 8, !tbaa !19
  %24 = load ptr, ptr %7, align 8, !tbaa !80
  %25 = getelementptr inbounds nuw %"struct.absl::cord_internal::CordRepSubstring", ptr %24, i32 0, i32 2
  %26 = load ptr, ptr %25, align 8, !tbaa !84
  %27 = call noundef ptr @_ZN4absl13cord_internal7CordRep3RefEPS1_(ptr noundef %26)
  store ptr %27, ptr %4, align 8, !tbaa !9
  %28 = load ptr, ptr %7, align 8, !tbaa !80
  call void @_ZN4absl13cord_internal7CordRep5UnrefEPS1_(ptr noundef %28)
  call void @llvm.lifetime.end.p0(i64 8, ptr %7) #3
  br label %29

29:                                               ; preds = %16, %3
  call void @llvm.lifetime.start.p0(i64 8, ptr %8) #3
  %30 = call noalias noundef nonnull ptr @_Znwm(i64 noundef 32) #22
  call void @llvm.memset.p0.i64(ptr align 16 %30, i8 0, i64 32, i1 false)
  invoke void @_ZN4absl13cord_internal16CordRepSubstringC2Ev(ptr noundef nonnull align 8 dereferenceable(32) %30)
          to label %31 unwind label %44

31:                                               ; preds = %29
  store ptr %30, ptr %8, align 8, !tbaa !80
  %32 = load i64, ptr %6, align 8, !tbaa !19
  %33 = load ptr, ptr %8, align 8, !tbaa !80
  %34 = getelementptr inbounds nuw %"struct.absl::cord_internal::CordRep", ptr %33, i32 0, i32 0
  store i64 %32, ptr %34, align 8, !tbaa !13
  %35 = load ptr, ptr %8, align 8, !tbaa !80
  %36 = getelementptr inbounds nuw %"struct.absl::cord_internal::CordRep", ptr %35, i32 0, i32 2
  store i8 1, ptr %36, align 4, !tbaa !79
  %37 = load i64, ptr %5, align 8, !tbaa !19
  %38 = load ptr, ptr %8, align 8, !tbaa !80
  %39 = getelementptr inbounds nuw %"struct.absl::cord_internal::CordRepSubstring", ptr %38, i32 0, i32 1
  store i64 %37, ptr %39, align 8, !tbaa !82
  %40 = load ptr, ptr %4, align 8, !tbaa !9
  %41 = load ptr, ptr %8, align 8, !tbaa !80
  %42 = getelementptr inbounds nuw %"struct.absl::cord_internal::CordRepSubstring", ptr %41, i32 0, i32 2
  store ptr %40, ptr %42, align 8, !tbaa !84
  %43 = load ptr, ptr %8, align 8, !tbaa !80
  call void @llvm.lifetime.end.p0(i64 8, ptr %8) #3
  ret ptr %43

44:                                               ; preds = %29
  %45 = landingpad { ptr, i32 }
          cleanup
  %46 = extractvalue { ptr, i32 } %45, 0
  store ptr %46, ptr %9, align 8
  %47 = extractvalue { ptr, i32 } %45, 1
  store i32 %47, ptr %10, align 4
  call void @_ZdlPvm(ptr noundef %30, i64 noundef 32) #20
  call void @llvm.lifetime.end.p0(i64 8, ptr %8) #3
  br label %48

48:                                               ; preds = %44
  %49 = load ptr, ptr %9, align 8
  %50 = load i32, ptr %10, align 4
  %51 = insertvalue { ptr, i32 } poison, ptr %49, 0
  %52 = insertvalue { ptr, i32 } %51, i32 %50, 1
  resume { ptr, i32 } %52
}

; Function Attrs: inlinehint mustprogress uwtable
define linkonce_odr dso_local void @_ZN4absl13cord_internal7CordRep5UnrefEPS1_(ptr noundef %0) #7 comdat align 2 {
  %2 = alloca ptr, align 8
  store ptr %0, ptr %2, align 8, !tbaa !9
  %3 = load ptr, ptr %2, align 8, !tbaa !9
  %4 = getelementptr inbounds nuw %"struct.absl::cord_internal::CordRep", ptr %3, i32 0, i32 1
  %5 = call noundef zeroext i1 @_ZN4absl13cord_internal16RefcountAndFlags27DecrementExpectHighRefcountEv(ptr noundef nonnull align 4 dereferenceable(4) %4)
  %6 = xor i1 %5, true
  %7 = zext i1 %6 to i64
  %8 = call i64 @llvm.expect.i64(i64 %7, i64 0)
  %9 = icmp ne i64 %8, 0
  br i1 %9, label %10, label %12

10:                                               ; preds = %1
  %11 = load ptr, ptr %2, align 8, !tbaa !9
  call void @_ZN4absl13cord_internal7CordRep7DestroyEPS1_(ptr noundef %11)
  br label %12

12:                                               ; preds = %10, %1
  ret void
}

; Function Attrs: inlinehint mustprogress uwtable
define internal noundef ptr @_ZN4absl13cord_internal12_GLOBAL__N_113MakeSubstringEPNS0_7CordRepEmm(ptr noundef %0, i64 noundef %1, i64 noundef %2) #7 {
  %4 = alloca ptr, align 8
  %5 = alloca ptr, align 8
  %6 = alloca i64, align 8
  %7 = alloca i64, align 8
  store ptr %0, ptr %5, align 8, !tbaa !9
  store i64 %1, ptr %6, align 8, !tbaa !19
  store i64 %2, ptr %7, align 8, !tbaa !19
  %8 = load i64, ptr %7, align 8, !tbaa !19
  %9 = load ptr, ptr %5, align 8, !tbaa !9
  %10 = getelementptr inbounds nuw %"struct.absl::cord_internal::CordRep", ptr %9, i32 0, i32 0
  %11 = load i64, ptr %10, align 8, !tbaa !13
  %12 = icmp eq i64 %8, %11
  br i1 %12, label %13, label %15

13:                                               ; preds = %3
  %14 = load ptr, ptr %5, align 8, !tbaa !9
  store ptr %14, ptr %4, align 8
  br label %25

15:                                               ; preds = %3
  %16 = load i64, ptr %7, align 8, !tbaa !19
  %17 = icmp eq i64 %16, 0
  br i1 %17, label %18, label %20

18:                                               ; preds = %15
  %19 = load ptr, ptr %5, align 8, !tbaa !9
  call void @_ZN4absl13cord_internal7CordRep5UnrefEPS1_(ptr noundef %19)
  store ptr null, ptr %4, align 8
  br label %25

20:                                               ; preds = %15
  %21 = load ptr, ptr %5, align 8, !tbaa !9
  %22 = load i64, ptr %6, align 8, !tbaa !19
  %23 = load i64, ptr %7, align 8, !tbaa !19
  %24 = call noundef ptr @_ZN4absl13cord_internal12_GLOBAL__N_115CreateSubstringEPNS0_7CordRepEmm(ptr noundef %21, i64 noundef %22, i64 noundef %23)
  store ptr %24, ptr %4, align 8
  br label %25

25:                                               ; preds = %20, %18, %13
  %26 = load ptr, ptr %4, align 8
  ret ptr %26
}

; Function Attrs: inlinehint mustprogress uwtable
define internal void @"_ZZN4absl13cord_internal12CordRepBtree11PrependSlowEPS1_PNS0_7CordRepEENK3$_0clES4_mm"(ptr noundef nonnull align 8 dereferenceable(8) %0, ptr noundef %1, i64 noundef %2, i64 noundef %3) #7 align 2 {
  %5 = alloca ptr, align 8
  %6 = alloca ptr, align 8
  %7 = alloca i64, align 8
  %8 = alloca i64, align 8
  store ptr %0, ptr %5, align 8, !tbaa !137
  store ptr %1, ptr %6, align 8, !tbaa !9
  store i64 %2, ptr %7, align 8, !tbaa !19
  store i64 %3, ptr %8, align 8, !tbaa !19
  %9 = load ptr, ptr %5, align 8
  %10 = load ptr, ptr %6, align 8, !tbaa !9
  %11 = load i64, ptr %7, align 8, !tbaa !19
  %12 = load i64, ptr %8, align 8, !tbaa !19
  %13 = call noundef ptr @_ZN4absl13cord_internal12_GLOBAL__N_113MakeSubstringEPNS0_7CordRepEmm(ptr noundef %10, i64 noundef %11, i64 noundef %12)
  store ptr %13, ptr %6, align 8, !tbaa !9
  %14 = getelementptr inbounds nuw %class.anon.5, ptr %9, i32 0, i32 0
  %15 = load ptr, ptr %14, align 8, !tbaa !213
  %16 = load ptr, ptr %15, align 8, !tbaa !4
  %17 = load ptr, ptr %6, align 8, !tbaa !9
  %18 = call noundef ptr @_ZN4absl13cord_internal12CordRepBtree10AddCordRepILNS1_8EdgeTypeE0EEEPS1_S4_PNS0_7CordRepE(ptr noundef %16, ptr noundef %17)
  %19 = getelementptr inbounds nuw %class.anon.5, ptr %9, i32 0, i32 0
  %20 = load ptr, ptr %19, align 8, !tbaa !213
  store ptr %18, ptr %20, align 8, !tbaa !4
  ret void
}

; Function Attrs: mustprogress uwtable
define internal void @"_ZSt13__invoke_implIvRKZN4absl13cord_internal12CordRepBtree11PrependSlowEPS2_PNS1_7CordRepEE3$_0JS5_mmEET_St14__invoke_otherOT0_DpOT1_"(ptr noundef nonnull align 8 dereferenceable(8) %0, ptr noundef nonnull align 8 dereferenceable(8) %1, ptr noundef nonnull align 8 dereferenceable(8) %2, ptr noundef nonnull align 8 dereferenceable(8) %3) #4 {
  %5 = alloca ptr, align 8
  %6 = alloca ptr, align 8
  %7 = alloca ptr, align 8
  %8 = alloca ptr, align 8
  store ptr %0, ptr %5, align 8, !tbaa !137
  store ptr %1, ptr %6, align 8, !tbaa !77
  store ptr %2, ptr %7, align 8, !tbaa !92
  store ptr %3, ptr %8, align 8, !tbaa !92
  %9 = load ptr, ptr %5, align 8, !tbaa !137
  %10 = load ptr, ptr %6, align 8, !tbaa !77
  %11 = load ptr, ptr %10, align 8, !tbaa !9
  %12 = load ptr, ptr %7, align 8, !tbaa !92
  %13 = load i64, ptr %12, align 8, !tbaa !19
  %14 = load ptr, ptr %8, align 8, !tbaa !92
  %15 = load i64, ptr %14, align 8, !tbaa !19
  call void @"_ZZN4absl13cord_internal12CordRepBtree11PrependSlowEPS1_PNS0_7CordRepEENK3$_0clES4_mm"(ptr noundef nonnull align 8 dereferenceable(8) %9, ptr noundef %11, i64 noundef %13, i64 noundef %15)
  ret void
}

; Function Attrs: mustprogress uwtable
define internal void @"_ZSt8__invokeIRKZN4absl13cord_internal12CordRepBtree11PrependSlowEPS2_PNS1_7CordRepEE3$_0JS5_mmEENSt15__invoke_resultIT_JDpT0_EE4typeEOSA_DpOSB_"(ptr noundef nonnull align 8 dereferenceable(8) %0, ptr noundef nonnull align 8 dereferenceable(8) %1, ptr noundef nonnull align 8 dereferenceable(8) %2, ptr noundef nonnull align 8 dereferenceable(8) %3) #4 {
  %5 = alloca ptr, align 8
  %6 = alloca ptr, align 8
  %7 = alloca ptr, align 8
  %8 = alloca ptr, align 8
  store ptr %0, ptr %5, align 8, !tbaa !137
  store ptr %1, ptr %6, align 8, !tbaa !77
  store ptr %2, ptr %7, align 8, !tbaa !92
  store ptr %3, ptr %8, align 8, !tbaa !92
  %9 = load ptr, ptr %5, align 8, !tbaa !137
  %10 = load ptr, ptr %6, align 8, !tbaa !77
  %11 = load ptr, ptr %7, align 8, !tbaa !92
  %12 = load ptr, ptr %8, align 8, !tbaa !92
  call void @"_ZSt13__invoke_implIvRKZN4absl13cord_internal12CordRepBtree11PrependSlowEPS2_PNS1_7CordRepEE3$_0JS5_mmEET_St14__invoke_otherOT0_DpOT1_"(ptr noundef nonnull align 8 dereferenceable(8) %9, ptr noundef nonnull align 8 dereferenceable(8) %10, ptr noundef nonnull align 8 dereferenceable(8) %11, ptr noundef nonnull align 8 dereferenceable(8) %12)
  ret void
}

; Function Attrs: inlinehint mustprogress uwtable
define internal void @"_ZSt6invokeIRKZN4absl13cord_internal12CordRepBtree11PrependSlowEPS2_PNS1_7CordRepEE3$_0JS5_mmEENSt13invoke_resultIT_JDpT0_EE4typeEOSA_DpOSB_"(ptr noundef nonnull align 8 dereferenceable(8) %0, ptr noundef nonnull align 8 dereferenceable(8) %1, ptr noundef nonnull align 8 dereferenceable(8) %2, ptr noundef nonnull align 8 dereferenceable(8) %3) #7 {
  %5 = alloca ptr, align 8
  %6 = alloca ptr, align 8
  %7 = alloca ptr, align 8
  %8 = alloca ptr, align 8
  store ptr %0, ptr %5, align 8, !tbaa !137
  store ptr %1, ptr %6, align 8, !tbaa !77
  store ptr %2, ptr %7, align 8, !tbaa !92
  store ptr %3, ptr %8, align 8, !tbaa !92
  %9 = load ptr, ptr %5, align 8, !tbaa !137
  %10 = load ptr, ptr %6, align 8, !tbaa !77
  %11 = load ptr, ptr %7, align 8, !tbaa !92
  %12 = load ptr, ptr %8, align 8, !tbaa !92
  call void @"_ZSt8__invokeIRKZN4absl13cord_internal12CordRepBtree11PrependSlowEPS2_PNS1_7CordRepEE3$_0JS5_mmEENSt15__invoke_resultIT_JDpT0_EE4typeEOSA_DpOSB_"(ptr noundef nonnull align 8 dereferenceable(8) %9, ptr noundef nonnull align 8 dereferenceable(8) %10, ptr noundef nonnull align 8 dereferenceable(8) %11, ptr noundef nonnull align 8 dereferenceable(8) %12)
  ret void
}

; Function Attrs: mustprogress uwtable
define internal void @"_ZN4absl19functional_internal12InvokeObjectIZNS_13cord_internal12CordRepBtree11PrependSlowEPS3_PNS2_7CordRepEE3$_0vJS6_mmEEET0_NS0_7VoidPtrEDpNS0_8ForwardTIT1_E4typeE"(ptr %0, ptr noundef %1, i64 noundef %2, i64 noundef %3) #4 {
  %5 = alloca %"union.absl::functional_internal::VoidPtr", align 8
  %6 = alloca ptr, align 8
  %7 = alloca i64, align 8
  %8 = alloca i64, align 8
  %9 = alloca ptr, align 8
  %10 = getelementptr inbounds nuw %"union.absl::functional_internal::VoidPtr", ptr %5, i32 0, i32 0
  store ptr %0, ptr %10, align 8
  store ptr %1, ptr %6, align 8, !tbaa !9
  store i64 %2, ptr %7, align 8, !tbaa !19
  store i64 %3, ptr %8, align 8, !tbaa !19
  call void @llvm.lifetime.start.p0(i64 8, ptr %9) #3
  %11 = load ptr, ptr %5, align 8, !tbaa !23
  store ptr %11, ptr %9, align 8, !tbaa !137
  %12 = load ptr, ptr %9, align 8, !tbaa !137
  call void @"_ZSt6invokeIRKZN4absl13cord_internal12CordRepBtree11PrependSlowEPS2_PNS1_7CordRepEE3$_0JS5_mmEENSt13invoke_resultIT_JDpT0_EE4typeEOSA_DpOSB_"(ptr noundef nonnull align 8 dereferenceable(8) %12, ptr noundef nonnull align 8 dereferenceable(8) %6, ptr noundef nonnull align 8 dereferenceable(8) %7, ptr noundef nonnull align 8 dereferenceable(8) %8)
  call void @llvm.lifetime.end.p0(i64 8, ptr %9) #3
  ret void
}