; Function Attrs: mustprogress uwtable
define internal void @"_ZN4absl19functional_internal12InvokeObjectIZNS_13cord_internal12CordRepBtree11PrependSlowEPS3_PNS2_7CordRepEE3$_0vJS6_mmEEET0_NS0_7VoidPtrEDpNS0_8ForwardTIT1_E4typeE"(ptr readonly captures(none) %0, ptr noundef %1, i64 noundef %2, i64 noundef %3) #3 personality ptr @__gxx_personality_v0 {
  %5 = load i64, ptr %1, align 8, !tbaa !7
  %6 = icmp eq i64 %3, %5
  br i1 %6, label %"_ZSt6invokeIRKZN4absl13cord_internal12CordRepBtree11PrependSlowEPS2_PNS1_7CordRepEE3$_0JS5_mmEENSt13invoke_resultIT_JDpT0_EE4typeEOSA_DpOSB_.exit", label %7

7:                                                ; preds = %4
  %8 = icmp eq i64 %3, 0
  br i1 %8, label %9, label %13

9:                                                ; preds = %7
  %10 = getelementptr inbounds nuw i8, ptr %1, i64 8
  %11 = atomicrmw sub ptr %10, i32 2 acq_rel, align 4
  %.not.i.i.i.i.i.i = icmp eq i32 %11, 2
  br i1 %.not.i.i.i.i.i.i, label %12, label %"_ZSt6invokeIRKZN4absl13cord_internal12CordRepBtree11PrependSlowEPS2_PNS1_7CordRepEE3$_0JS5_mmEENSt13invoke_resultIT_JDpT0_EE4typeEOSA_DpOSB_.exit", !prof !29

12:                                               ; preds = %9
  tail call void @_ZN4absl13cord_internal7CordRep7DestroyEPS1_(ptr noundef nonnull %1)
  br label %"_ZSt6invokeIRKZN4absl13cord_internal12CordRepBtree11PrependSlowEPS2_PNS1_7CordRepEE3$_0JS5_mmEENSt13invoke_resultIT_JDpT0_EE4typeEOSA_DpOSB_.exit"

13:                                               ; preds = %7
  %14 = getelementptr inbounds nuw i8, ptr %1, i64 12
  %15 = load i8, ptr %14, align 4, !tbaa !25
  %16 = icmp eq i8 %15, 1
  br i1 %16, label %17, label %_ZN4absl13cord_internal12_GLOBAL__N_115CreateSubstringEPNS0_7CordRepEmm.exit.i.i.i.i.i

17:                                               ; preds = %13
  %18 = getelementptr inbounds nuw i8, ptr %1, i64 16
  %19 = load i64, ptr %18, align 8, !tbaa !72
  %20 = add i64 %19, %2
  %21 = getelementptr inbounds nuw i8, ptr %1, i64 24
  %22 = load ptr, ptr %21, align 8, !tbaa !74, !nonnull !26, !noundef !26
  %23 = getelementptr inbounds nuw i8, ptr %22, i64 8
  %24 = atomicrmw add ptr %23, i32 2 monotonic, align 4
  %25 = getelementptr inbounds nuw i8, ptr %1, i64 8
  %26 = atomicrmw sub ptr %25, i32 2 acq_rel, align 4
  %.not.i.i.i.i.i.i.i = icmp eq i32 %26, 2
  br i1 %.not.i.i.i.i.i.i.i, label %27, label %_ZN4absl13cord_internal12_GLOBAL__N_115CreateSubstringEPNS0_7CordRepEmm.exit.i.i.i.i.i, !prof !29

27:                                               ; preds = %17
  tail call void @_ZN4absl13cord_internal7CordRep7DestroyEPS1_(ptr noundef nonnull %1)
  br label %_ZN4absl13cord_internal12_GLOBAL__N_115CreateSubstringEPNS0_7CordRepEmm.exit.i.i.i.i.i

_ZN4absl13cord_internal12_GLOBAL__N_115CreateSubstringEPNS0_7CordRepEmm.exit.i.i.i.i.i: ; preds = %27, %17, %13
  %.015.i.i.i.i.i.i = phi i64 [ %2, %13 ], [ %20, %17 ], [ %20, %27 ]
  %.0.i.i.i.i.i.i = phi ptr [ %1, %13 ], [ %22, %17 ], [ %22, %27 ]
  %28 = tail call noalias noundef nonnull dereferenceable(32) ptr @_Znwm(i64 noundef 32) #21
  tail call void @llvm.memset.p0.i64(ptr noundef nonnull align 16 dereferenceable(32) %28, i8 0, i64 16, i1 false)
  %29 = getelementptr inbounds nuw i8, ptr %28, i64 8
  store i32 2, ptr %29, align 4, !tbaa !24
  store i64 %3, ptr %28, align 8, !tbaa !7
  %30 = getelementptr inbounds nuw i8, ptr %28, i64 12
  store i8 1, ptr %30, align 4, !tbaa !25
  %31 = getelementptr inbounds nuw i8, ptr %28, i64 16
  store i64 %.015.i.i.i.i.i.i, ptr %31, align 8, !tbaa !72
  %32 = getelementptr inbounds nuw i8, ptr %28, i64 24
  store ptr %.0.i.i.i.i.i.i, ptr %32, align 8, !tbaa !74
  br label %"_ZSt6invokeIRKZN4absl13cord_internal12CordRepBtree11PrependSlowEPS2_PNS1_7CordRepEE3$_0JS5_mmEENSt13invoke_resultIT_JDpT0_EE4typeEOSA_DpOSB_.exit"

"_ZSt6invokeIRKZN4absl13cord_internal12CordRepBtree11PrependSlowEPS2_PNS1_7CordRepEE3$_0JS5_mmEENSt13invoke_resultIT_JDpT0_EE4typeEOSA_DpOSB_.exit": ; preds = %4, %9, %12, %_ZN4absl13cord_internal12_GLOBAL__N_115CreateSubstringEPNS0_7CordRepEmm.exit.i.i.i.i.i
  %.0.i.i.i.i.i = phi ptr [ %28, %_ZN4absl13cord_internal12_GLOBAL__N_115CreateSubstringEPNS0_7CordRepEmm.exit.i.i.i.i.i ], [ %1, %4 ], [ null, %9 ], [ null, %12 ]
  %33 = load ptr, ptr %0, align 8, !tbaa !111
  %34 = load ptr, ptr %33, align 8, !tbaa !14
  %35 = tail call noundef ptr @_ZN4absl13cord_internal12CordRepBtree10AddCordRepILNS1_8EdgeTypeE0EEEPS1_S4_PNS0_7CordRepE(ptr noundef %34, ptr noundef %.0.i.i.i.i.i)
  %36 = load ptr, ptr %0, align 8, !tbaa !111
  store ptr %35, ptr %36, align 8, !tbaa !14
  ret void
}